target datalayout = "e-m:e-p270:32:32-p271:32:32-p272:64:64-i64:64-i128:128-f80:128-n8:16:32:64-S128"
target triple = "x86_64-pc-linux-gnu"

%struct.Abc_Frame_t_ = type { ptr, ptr, ptr, ptr, ptr, ptr, ptr, ptr, ptr, ptr, i32, i32, i32, i32, i32, ptr, float, float, i32, i32, ptr, ptr, ptr, double, double, ptr, ptr, ptr, ptr, ptr, ptr, ptr, ptr, ptr, ptr, ptr, ptr, float, ptr, i32, ptr, ptr, ptr, ptr, ptr, i32, i32, i32, i32, i32, i32, ptr, ptr, ptr, ptr, ptr, ptr, i32, i32, ptr, ptr, ptr, ptr, ptr, ptr, ptr, ptr, ptr, ptr, ptr, ptr, ptr, ptr, ptr, ptr, ptr, ptr, ptr, ptr, ptr, ptr, ptr, ptr, ptr, ptr, ptr, ptr, ptr, ptr }
%struct.Abc_Ntk_t_ = type { i32, i32, ptr, ptr, ptr, ptr, ptr, ptr, ptr, ptr, ptr, ptr, ptr, [11 x i32], i32, i32, i32, i32, ptr, i32, ptr, ptr, i32, i32, i32, double, i32, %struct.Vec_Int_t_, ptr, ptr, ptr, ptr, ptr, float, i32, ptr, ptr, ptr, ptr, ptr, ptr, ptr, ptr, ptr, ptr, ptr, ptr, ptr, ptr, ptr, ptr, ptr, ptr, ptr, ptr, ptr, ptr }
%struct.Vec_Int_t_ = type { i32, i32, ptr }

@.str.39 = private unnamed_addr constant [4 x i8] c"yes\00", align 1
@.str.40 = private unnamed_addr constant [3 x i8] c"no\00", align 1
@.str.74 = private unnamed_addr constant [64 x i8] c"\09-v       : toggle printing verbose information [default = %s]\0A\00", align 1
@.str.86 = private unnamed_addr constant [37 x i8] c"\09-h       : print the command usage\0A\00", align 1
@.str.88 = private unnamed_addr constant [30 x i8] c"There is no current network.\0A\00", align 1
@.str.105 = private unnamed_addr constant [25 x i8] c"The command has failed.\0A\00", align 1
@.str.108 = private unnamed_addr constant [4 x i8] c"ivh\00", align 1
@.str.109 = private unnamed_addr constant [45 x i8] c"The current network is not a logic network.\0A\00", align 1
@.str.110 = private unnamed_addr constant [24 x i8] c"usage: unbuffer [-ivh]\0A\00", align 1
@.str.111 = private unnamed_addr constant [45 x i8] c"\09           collapses buffer/inverter trees\0A\00", align 1
@.str.112 = private unnamed_addr constant [54 x i8] c"\09-i       : toggle removing interters [default = %s]\0A\00", align 1

; Function Attrs: inlinehint nounwind uwtable
define internal i32 @Abc_NtkIsLogic(ptr noundef %0) #1 {
  %2 = alloca ptr, align 8
  store ptr %0, ptr %2, align 8, !tbaa !69
  %3 = load ptr, ptr %2, align 8, !tbaa !69
  %4 = getelementptr inbounds nuw %struct.Abc_Ntk_t_, ptr %3, i32 0, i32 0
  %5 = load i32, ptr %4, align 8, !tbaa !189
  %6 = icmp eq i32 %5, 2
  %7 = zext i1 %6 to i32
  ret i32 %7
}

; Function Attrs: nounwind uwtable
define internal i32 @Scl_CommandUnBuffer(ptr noundef %0, i32 noundef %1, ptr noundef %2) #0 {
  %4 = alloca i32, align 4
  %5 = alloca ptr, align 8
  %6 = alloca i32, align 4
  %7 = alloca ptr, align 8
  %8 = alloca ptr, align 8
  %9 = alloca ptr, align 8
  %10 = alloca i32, align 4
  %11 = alloca i32, align 4
  %12 = alloca i32, align 4
  %13 = alloca i32, align 4
  store ptr %0, ptr %5, align 8, !tbaa !3
  store i32 %1, ptr %6, align 4, !tbaa !29
  store ptr %2, ptr %7, align 8, !tbaa !50
  call void @llvm.lifetime.start.p0(i64 8, ptr %8) #12
  call void @llvm.lifetime.start.p0(i64 8, ptr %9) #12
  %14 = load ptr, ptr %5, align 8, !tbaa !3
  %15 = call ptr @Abc_FrameReadNtk(ptr noundef %14)
  store ptr %15, ptr %9, align 8, !tbaa !69
  call void @llvm.lifetime.start.p0(i64 4, ptr %10) #12
  call void @llvm.lifetime.start.p0(i64 4, ptr %11) #12
  store i32 0, ptr %11, align 4, !tbaa !29
  call void @llvm.lifetime.start.p0(i64 4, ptr %12) #12
  store i32 0, ptr %12, align 4, !tbaa !29
  call void (...) @Extra_UtilGetoptReset()
  br label %16

16:                                               ; preds = %31, %3
  %17 = load i32, ptr %6, align 4, !tbaa !29
  %18 = load ptr, ptr %7, align 8, !tbaa !50
  %19 = call i32 @Extra_UtilGetopt(i32 noundef %17, ptr noundef %18, ptr noundef @.str.108)
  store i32 %19, ptr %10, align 4, !tbaa !29
  %20 = icmp ne i32 %19, -1
  br i1 %20, label %21, label %32

21:                                               ; preds = %16
  %22 = load i32, ptr %10, align 4, !tbaa !29
  switch i32 %22, label %30 [
    i32 105, label %23
    i32 118, label %26
    i32 104, label %29
  ]

23:                                               ; preds = %21
  %24 = load i32, ptr %11, align 4, !tbaa !29
  %25 = xor i32 %24, 1
  store i32 %25, ptr %11, align 4, !tbaa !29
  br label %31

26:                                               ; preds = %21
  %27 = load i32, ptr %12, align 4, !tbaa !29
  %28 = xor i32 %27, 1
  store i32 %28, ptr %12, align 4, !tbaa !29
  br label %31

29:                                               ; preds = %21
  br label %67

30:                                               ; preds = %21
  br label %67

31:                                               ; preds = %26, %23
  br label %16, !llvm.loop !71

32:                                               ; preds = %16
  %33 = load ptr, ptr %9, align 8, !tbaa !69
  %34 = icmp eq ptr %33, null
  br i1 %34, label %35, label %40

35:                                               ; preds = %32
  %36 = load ptr, ptr %5, align 8, !tbaa !3
  %37 = getelementptr inbounds nuw %struct.Abc_Frame_t_, ptr %36, i32 0, i32 21
  %38 = load ptr, ptr %37, align 8, !tbaa !59
  %39 = call i32 (ptr, ptr, ...) @fprintf(ptr noundef %38, ptr noundef @.str.88) #12
  store i32 1, ptr %4, align 4
  store i32 1, ptr %13, align 4
  br label %94

40:                                               ; preds = %32
  %41 = load ptr, ptr %9, align 8, !tbaa !69
  %42 = call i32 @Abc_NtkIsLogic(ptr noundef %41)
  %43 = icmp ne i32 %42, 0
  br i1 %43, label %49, label %44

44:                                               ; preds = %40
  %45 = load ptr, ptr %5, align 8, !tbaa !3
  %46 = getelementptr inbounds nuw %struct.Abc_Frame_t_, ptr %45, i32 0, i32 21
  %47 = load ptr, ptr %46, align 8, !tbaa !59
  %48 = call i32 (ptr, ptr, ...) @fprintf(ptr noundef %47, ptr noundef @.str.109) #12
  store i32 1, ptr %4, align 4
  store i32 1, ptr %13, align 4
  br label %94

49:                                               ; preds = %40
  %50 = load i32, ptr %11, align 4, !tbaa !29
  %51 = icmp ne i32 %50, 0
  br i1 %51, label %52, label %56

52:                                               ; preds = %49
  %53 = load ptr, ptr %9, align 8, !tbaa !69
  %54 = load i32, ptr %12, align 4, !tbaa !29
  %55 = call ptr @Abc_SclUnBufferPhase(ptr noundef %53, i32 noundef %54)
  store ptr %55, ptr %8, align 8, !tbaa !69
  br label %60

56:                                               ; preds = %49
  %57 = load ptr, ptr %9, align 8, !tbaa !69
  %58 = load i32, ptr %12, align 4, !tbaa !29
  %59 = call ptr @Abc_SclUnBufferPerform(ptr noundef %57, i32 noundef %58)
  store ptr %59, ptr %8, align 8, !tbaa !69
  br label %60

60:                                               ; preds = %56, %52
  %61 = load ptr, ptr %8, align 8, !tbaa !69
  %62 = icmp eq ptr %61, null
  br i1 %62, label %63, label %64

63:                                               ; preds = %60
  call void (i32, ptr, ...) @Abc_Print(i32 noundef -1, ptr noundef @.str.105)
  store i32 1, ptr %4, align 4
  store i32 1, ptr %13, align 4
  br label %94

64:                                               ; preds = %60
  %65 = load ptr, ptr %5, align 8, !tbaa !3
  %66 = load ptr, ptr %8, align 8, !tbaa !69
  call void @Abc_FrameReplaceCurrentNetwork(ptr noundef %65, ptr noundef %66)
  store i32 0, ptr %4, align 4
  store i32 1, ptr %13, align 4
  br label %94

67:                                               ; preds = %30, %29
  %68 = load ptr, ptr %5, align 8, !tbaa !3
  %69 = getelementptr inbounds nuw %struct.Abc_Frame_t_, ptr %68, i32 0, i32 21
  %70 = load ptr, ptr %69, align 8, !tbaa !59
  %71 = call i32 (ptr, ptr, ...) @fprintf(ptr noundef %70, ptr noundef @.str.110) #12
  %72 = load ptr, ptr %5, align 8, !tbaa !3
  %73 = getelementptr inbounds nuw %struct.Abc_Frame_t_, ptr %72, i32 0, i32 21
  %74 = load ptr, ptr %73, align 8, !tbaa !59
  %75 = call i32 (ptr, ptr, ...) @fprintf(ptr noundef %74, ptr noundef @.str.111) #12
  %76 = load ptr, ptr %5, align 8, !tbaa !3
  %77 = getelementptr inbounds nuw %struct.Abc_Frame_t_, ptr %76, i32 0, i32 21
  %78 = load ptr, ptr %77, align 8, !tbaa !59
  %79 = load i32, ptr %11, align 4, !tbaa !29
  %80 = icmp ne i32 %79, 0
  %81 = select i1 %80, ptr @.str.39, ptr @.str.40
  %82 = call i32 (ptr, ptr, ...) @fprintf(ptr noundef %78, ptr noundef @.str.112, ptr noundef %81) #12
  %83 = load ptr, ptr %5, align 8, !tbaa !3
  %84 = getelementptr inbounds nuw %struct.Abc_Frame_t_, ptr %83, i32 0, i32 21
  %85 = load ptr, ptr %84, align 8, !tbaa !59
  %86 = load i32, ptr %12, align 4, !tbaa !29
  %87 = icmp ne i32 %86, 0
  %88 = select i1 %87, ptr @.str.39, ptr @.str.40
  %89 = call i32 (ptr, ptr, ...) @fprintf(ptr noundef %85, ptr noundef @.str.74, ptr noundef %88) #12
  %90 = load ptr, ptr %5, align 8, !tbaa !3
  %91 = getelementptr inbounds nuw %struct.Abc_Frame_t_, ptr %90, i32 0, i32 21
  %92 = load ptr, ptr %91, align 8, !tbaa !59
  %93 = call i32 (ptr, ptr, ...) @fprintf(ptr noundef %92, ptr noundef @.str.86) #12
  store i32 1, ptr %4, align 4
  store i32 1, ptr %13, align 4
  br label %94

94:                                               ; preds = %67, %64, %63, %44, %35
  call void @llvm.lifetime.end.p0(i64 4, ptr %12) #12
  call void @llvm.lifetime.end.p0(i64 4, ptr %11) #12
  call void @llvm.lifetime.end.p0(i64 4, ptr %10) #12
  call void @llvm.lifetime.end.p0(i64 8, ptr %9) #12
  call void @llvm.lifetime.end.p0(i64 8, ptr %8) #12
  %95 = load i32, ptr %4, align 4
  ret i32 %95
}