; Function Attrs: nounwind uwtable
define internal range(i32 0, 2) i32 @Scl_CommandUnBuffer(ptr noundef %0, i32 noundef %1, ptr noundef %2) #0 {
  %4 = tail call ptr @Abc_FrameReadNtk(ptr noundef %0) #12
  tail call void (...) @Extra_UtilGetoptReset() #12
  br label %.outer

.outer:                                           ; preds = %7, %3
  %.025.ph = phi i32 [ %8, %7 ], [ 0, %3 ]
  %.0.ph = phi i32 [ %.0, %7 ], [ 0, %3 ]
  br label %5

5:                                                ; preds = %.outer, %9
  %.0 = phi i32 [ %10, %9 ], [ %.0.ph, %.outer ]
  %6 = tail call i32 @Extra_UtilGetopt(i32 noundef %1, ptr noundef %2, ptr noundef nonnull @.str.108) #12
  switch i32 %6, label %31 [
    i32 -1, label %11
    i32 105, label %7
    i32 118, label %9
  ]

7:                                                ; preds = %5
  %8 = xor i32 %.025.ph, 1
  br label %.outer, !llvm.loop !102

9:                                                ; preds = %5
  %10 = xor i32 %.0, 1
  br label %5, !llvm.loop !102

11:                                               ; preds = %5
  %12 = icmp eq ptr %4, null
  br i1 %12, label %13, label %17

13:                                               ; preds = %11
  %14 = getelementptr inbounds nuw i8, ptr %0, i64 136
  %15 = load ptr, ptr %14, align 8, !tbaa !84
  %16 = tail call i64 @fwrite(ptr nonnull @.str.88, i64 29, i64 1, ptr %15)
  br label %45

17:                                               ; preds = %11
  %.val = load i32, ptr %4, align 8, !tbaa !101
  %.not = icmp eq i32 %.val, 2
  br i1 %.not, label %22, label %18

18:                                               ; preds = %17
  %19 = getelementptr inbounds nuw i8, ptr %0, i64 136
  %20 = load ptr, ptr %19, align 8, !tbaa !84
  %21 = tail call i64 @fwrite(ptr nonnull @.str.109, i64 44, i64 1, ptr %20)
  br label %45

22:                                               ; preds = %17
  %.not32 = icmp eq i32 %.025.ph, 0
  br i1 %.not32, label %25, label %23

23:                                               ; preds = %22
  %24 = tail call ptr @Abc_SclUnBufferPhase(ptr noundef nonnull %4, i32 noundef %.0) #12
  br label %27

25:                                               ; preds = %22
  %26 = tail call ptr @Abc_SclUnBufferPerform(ptr noundef nonnull %4, i32 noundef %.0) #12
  br label %27

27:                                               ; preds = %25, %23
  %.028 = phi ptr [ %24, %23 ], [ %26, %25 ]
  %28 = icmp eq ptr %.028, null
  br i1 %28, label %29, label %30

29:                                               ; preds = %27
  tail call void (i32, ptr, ...) @Abc_Print(i32 noundef -1, ptr noundef nonnull @.str.105)
  br label %45

30:                                               ; preds = %27
  tail call void @Abc_FrameReplaceCurrentNetwork(ptr noundef %0, ptr noundef nonnull %.028) #12
  br label %45

31:                                               ; preds = %5
  %32 = getelementptr inbounds nuw i8, ptr %0, i64 136
  %33 = load ptr, ptr %32, align 8, !tbaa !84
  %34 = tail call i64 @fwrite(ptr nonnull @.str.110, i64 23, i64 1, ptr %33)
  %35 = load ptr, ptr %32, align 8, !tbaa !84
  %36 = tail call i64 @fwrite(ptr nonnull @.str.111, i64 44, i64 1, ptr %35)
  %37 = load ptr, ptr %32, align 8, !tbaa !84
  %.not33 = icmp eq i32 %.025.ph, 0
  %38 = select i1 %.not33, ptr @.str.40, ptr @.str.39
  %39 = tail call i32 (ptr, ptr, ...) @fprintf(ptr noundef %37, ptr noundef nonnull @.str.112, ptr noundef nonnull %38) #12
  %40 = load ptr, ptr %32, align 8, !tbaa !84
  %.not34 = icmp eq i32 %.0, 0
  %41 = select i1 %.not34, ptr @.str.40, ptr @.str.39
  %42 = tail call i32 (ptr, ptr, ...) @fprintf(ptr noundef %40, ptr noundef nonnull @.str.74, ptr noundef nonnull %41) #12
  %43 = load ptr, ptr %32, align 8, !tbaa !84
  %44 = tail call i64 @fwrite(ptr nonnull @.str.86, i64 36, i64 1, ptr %43)
  br label %45

45:                                               ; preds = %31, %30, %29, %18, %13
  %.027 = phi i32 [ 1, %31 ], [ 1, %13 ], [ 1, %29 ], [ 0, %30 ], [ 1, %18 ]
  ret i32 %.027
}